target datalayout = "e-m:e-p270:32:32-p271:32:32-p272:64:64-i64:64-i128:128-f80:128-n8:16:32:64-S128"
target triple = "x86_64-pc-linux-gnu"

%struct.b2Vec2 = type { float, float }
%struct.b2Rot = type { float, float }
%struct.b2JointId = type { i32, i16, i16 }
%struct.b2JointSim = type { i32, i32, i32, i32, %struct.b2Vec2, %struct.b2Vec2, float, float, float, float, %union.anon }
%union.anon = type { %struct.b2PrismaticJoint }
%struct.b2PrismaticJoint = type { %struct.b2Vec2, %struct.b2Vec2, float, float, float, float, float, float, float, float, float, float, float, i32, i32, %struct.b2Vec2, %struct.b2Vec2, %struct.b2Vec2, %struct.b2Vec2, float, float, %struct.b2Softness, i8, i8, i8 }
%struct.b2Softness = type { float, float, float }
%struct.b2Transform = type { %struct.b2Vec2, %struct.b2Rot }
%struct.b2World = type { %struct.b2ArenaAllocator, %struct.b2BroadPhase, %struct.b2ConstraintGraph, %struct.b2IdPool, %struct.b2BodyArray, %struct.b2IdPool, %struct.b2SolverSetArray, %struct.b2IdPool, %struct.b2JointArray, %struct.b2IdPool, %struct.b2ContactArray, %struct.b2IdPool, %struct.b2IslandArray, %struct.b2IdPool, %struct.b2IdPool, %struct.b2ShapeArray, %struct.b2ChainShapeArray, %struct.b2SensorArray, %struct.b2TaskContextArray, %struct.b2SensorTaskContextArray, %struct.b2BodyMoveEventArray, %struct.b2SensorBeginTouchEventArray, %struct.b2ContactBeginTouchEventArray, [2 x %struct.b2SensorEndTouchEventArray], [2 x %struct.b2ContactEndTouchEventArray], i32, %struct.b2ContactHitEventArray, %struct.b2BitSet, %struct.b2BitSet, %struct.b2BitSet, i64, i32, %struct.b2Vec2, float, float, float, float, float, float, float, float, ptr, ptr, i16, %struct.b2Profile, ptr, ptr, ptr, ptr, i32, ptr, ptr, ptr, ptr, ptr, float, i32, i32, i16, i8, i8, i8, i8, i8, i8 }
%struct.b2ArenaAllocator = type { ptr, i32, i32, i32, i32, %struct.b2ArenaEntryArray }
%struct.b2ArenaEntryArray = type { ptr, i32, i32 }
%struct.b2BroadPhase = type { [3 x %struct.b2DynamicTree], i32, %struct.b2HashSet, %struct.b2IntArray, ptr, ptr, i32, %struct.b2AtomicInt, %struct.b2HashSet }
%struct.b2DynamicTree = type { ptr, i32, i32, i32, i32, i32, ptr, ptr, ptr, ptr, i32 }
%struct.b2IntArray = type { ptr, i32, i32 }
%struct.b2AtomicInt = type { i32 }
%struct.b2HashSet = type { ptr, i32, i32 }
%struct.b2ConstraintGraph = type { [12 x %struct.b2GraphColor] }
%struct.b2GraphColor = type { %struct.b2BitSet, %struct.b2ContactSimArray, %struct.b2JointSimArray, %union.anon.0 }
%struct.b2ContactSimArray = type { ptr, i32, i32 }
%struct.b2JointSimArray = type { ptr, i32, i32 }
%union.anon.0 = type { ptr }
%struct.b2BodyArray = type { ptr, i32, i32 }
%struct.b2SolverSetArray = type { ptr, i32, i32 }
%struct.b2JointArray = type { ptr, i32, i32 }
%struct.b2ContactArray = type { ptr, i32, i32 }
%struct.b2IslandArray = type { ptr, i32, i32 }
%struct.b2IdPool = type { %struct.b2IntArray, i32 }
%struct.b2ShapeArray = type { ptr, i32, i32 }
%struct.b2ChainShapeArray = type { ptr, i32, i32 }
%struct.b2SensorArray = type { ptr, i32, i32 }
%struct.b2TaskContextArray = type { ptr, i32, i32 }
%struct.b2SensorTaskContextArray = type { ptr, i32, i32 }
%struct.b2BodyMoveEventArray = type { ptr, i32, i32 }
%struct.b2SensorBeginTouchEventArray = type { ptr, i32, i32 }
%struct.b2ContactBeginTouchEventArray = type { ptr, i32, i32 }
%struct.b2SensorEndTouchEventArray = type { ptr, i32, i32 }
%struct.b2ContactEndTouchEventArray = type { ptr, i32, i32 }
%struct.b2ContactHitEventArray = type { ptr, i32, i32 }
%struct.b2BitSet = type { ptr, i32, i32 }
%struct.b2Profile = type { float, float, float, float, float, float, float, float, float, float, float, float, float, float, float, float, float, float, float, float, float, float }

; Function Attrs: inlinehint nounwind uwtable
define internal float @b2Length(<2 x float> %0) #5 {
  %2 = alloca %struct.b2Vec2, align 4
  store <2 x float> %0, ptr %2, align 4
  %3 = getelementptr inbounds nuw %struct.b2Vec2, ptr %2, i32 0, i32 0
  %4 = load float, ptr %3, align 4, !tbaa !87
  %5 = getelementptr inbounds nuw %struct.b2Vec2, ptr %2, i32 0, i32 0
  %6 = load float, ptr %5, align 4, !tbaa !87
  %7 = fmul float %4, %6
  %8 = getelementptr inbounds nuw %struct.b2Vec2, ptr %2, i32 0, i32 1
  %9 = load float, ptr %8, align 4, !tbaa !89
  %10 = getelementptr inbounds nuw %struct.b2Vec2, ptr %2, i32 0, i32 1
  %11 = load float, ptr %10, align 4, !tbaa !89
  %12 = fmul float %9, %11
  %13 = fadd float %7, %12
  %14 = call float @sqrtf(float noundef %13) #8, !tbaa !92
  ret float %14
}

; Function Attrs: inlinehint nounwind uwtable
define internal <2 x float> @b2Sub(<2 x float> %0, <2 x float> %1) #5 {
  %3 = alloca %struct.b2Vec2, align 4
  %4 = alloca %struct.b2Vec2, align 4
  %5 = alloca %struct.b2Vec2, align 4
  store <2 x float> %0, ptr %4, align 4
  store <2 x float> %1, ptr %5, align 4
  %6 = getelementptr inbounds nuw %struct.b2Vec2, ptr %3, i32 0, i32 0
  %7 = getelementptr inbounds nuw %struct.b2Vec2, ptr %4, i32 0, i32 0
  %8 = load float, ptr %7, align 4, !tbaa !87
  %9 = getelementptr inbounds nuw %struct.b2Vec2, ptr %5, i32 0, i32 0
  %10 = load float, ptr %9, align 4, !tbaa !87
  %11 = fsub float %8, %10
  store float %11, ptr %6, align 4, !tbaa !87
  %12 = getelementptr inbounds nuw %struct.b2Vec2, ptr %3, i32 0, i32 1
  %13 = getelementptr inbounds nuw %struct.b2Vec2, ptr %4, i32 0, i32 1
  %14 = load float, ptr %13, align 4, !tbaa !89
  %15 = getelementptr inbounds nuw %struct.b2Vec2, ptr %5, i32 0, i32 1
  %16 = load float, ptr %15, align 4, !tbaa !89
  %17 = fsub float %14, %16
  store float %17, ptr %12, align 4, !tbaa !89
  %18 = load <2 x float>, ptr %3, align 4
  ret <2 x float> %18
}

; Function Attrs: inlinehint nounwind uwtable
define internal <2 x float> @b2TransformPoint(<2 x float> %0, <2 x float> %1, <2 x float> %2) #5 {
  %4 = alloca %struct.b2Vec2, align 4
  %5 = alloca %struct.b2Transform, align 4
  %6 = alloca %struct.b2Vec2, align 4
  %7 = alloca float, align 4
  %8 = alloca float, align 4
  %9 = getelementptr inbounds nuw { <2 x float>, <2 x float> }, ptr %5, i32 0, i32 0
  store <2 x float> %0, ptr %9, align 4
  %10 = getelementptr inbounds nuw { <2 x float>, <2 x float> }, ptr %5, i32 0, i32 1
  store <2 x float> %1, ptr %10, align 4
  store <2 x float> %2, ptr %6, align 4
  call void @llvm.lifetime.start.p0(i64 4, ptr %7) #8
  %11 = getelementptr inbounds nuw %struct.b2Transform, ptr %5, i32 0, i32 1
  %12 = getelementptr inbounds nuw %struct.b2Rot, ptr %11, i32 0, i32 0
  %13 = load float, ptr %12, align 4, !tbaa !84
  %14 = getelementptr inbounds nuw %struct.b2Vec2, ptr %6, i32 0, i32 0
  %15 = load float, ptr %14, align 4, !tbaa !87
  %16 = fmul float %13, %15
  %17 = getelementptr inbounds nuw %struct.b2Transform, ptr %5, i32 0, i32 1
  %18 = getelementptr inbounds nuw %struct.b2Rot, ptr %17, i32 0, i32 1
  %19 = load float, ptr %18, align 4, !tbaa !88
  %20 = getelementptr inbounds nuw %struct.b2Vec2, ptr %6, i32 0, i32 1
  %21 = load float, ptr %20, align 4, !tbaa !89
  %22 = fmul float %19, %21
  %23 = fsub float %16, %22
  %24 = getelementptr inbounds nuw %struct.b2Transform, ptr %5, i32 0, i32 0
  %25 = getelementptr inbounds nuw %struct.b2Vec2, ptr %24, i32 0, i32 0
  %26 = load float, ptr %25, align 4, !tbaa !90
  %27 = fadd float %23, %26
  store float %27, ptr %7, align 4, !tbaa !3
  call void @llvm.lifetime.start.p0(i64 4, ptr %8) #8
  %28 = getelementptr inbounds nuw %struct.b2Transform, ptr %5, i32 0, i32 1
  %29 = getelementptr inbounds nuw %struct.b2Rot, ptr %28, i32 0, i32 1
  %30 = load float, ptr %29, align 4, !tbaa !88
  %31 = getelementptr inbounds nuw %struct.b2Vec2, ptr %6, i32 0, i32 0
  %32 = load float, ptr %31, align 4, !tbaa !87
  %33 = fmul float %30, %32
  %34 = getelementptr inbounds nuw %struct.b2Transform, ptr %5, i32 0, i32 1
  %35 = getelementptr inbounds nuw %struct.b2Rot, ptr %34, i32 0, i32 0
  %36 = load float, ptr %35, align 4, !tbaa !84
  %37 = getelementptr inbounds nuw %struct.b2Vec2, ptr %6, i32 0, i32 1
  %38 = load float, ptr %37, align 4, !tbaa !89
  %39 = fmul float %36, %38
  %40 = fadd float %33, %39
  %41 = getelementptr inbounds nuw %struct.b2Transform, ptr %5, i32 0, i32 0
  %42 = getelementptr inbounds nuw %struct.b2Vec2, ptr %41, i32 0, i32 1
  %43 = load float, ptr %42, align 4, !tbaa !91
  %44 = fadd float %40, %43
  store float %44, ptr %8, align 4, !tbaa !3
  %45 = getelementptr inbounds nuw %struct.b2Vec2, ptr %4, i32 0, i32 0
  %46 = load float, ptr %7, align 4, !tbaa !3
  store float %46, ptr %45, align 4, !tbaa !87
  %47 = getelementptr inbounds nuw %struct.b2Vec2, ptr %4, i32 0, i32 1
  %48 = load float, ptr %8, align 4, !tbaa !3
  store float %48, ptr %47, align 4, !tbaa !89
  call void @llvm.lifetime.end.p0(i64 4, ptr %8) #8
  call void @llvm.lifetime.end.p0(i64 4, ptr %7) #8
  %49 = load <2 x float>, ptr %4, align 4
  ret <2 x float> %49
}

; Function Attrs: nounwind uwtable
define float @b2DistanceJoint_GetCurrentLength(i64 %0) #4 {
  %2 = alloca float, align 4
  %3 = alloca %struct.b2JointId, align 4
  %4 = alloca ptr, align 8
  %5 = alloca ptr, align 8
  %6 = alloca i32, align 4
  %7 = alloca %struct.b2Transform, align 4
  %8 = alloca %struct.b2Transform, align 4
  %9 = alloca %struct.b2Vec2, align 4
  %10 = alloca %struct.b2Vec2, align 4
  %11 = alloca %struct.b2Vec2, align 4
  %12 = alloca float, align 4
  store i64 %0, ptr %3, align 4
  call void @llvm.lifetime.start.p0(i64 8, ptr %4) #8
  %13 = load i64, ptr %3, align 4
  %14 = call ptr @b2GetJointSimCheckType(i64 %13, i32 noundef 0)
  store ptr %14, ptr %4, align 8, !tbaa !7
  call void @llvm.lifetime.start.p0(i64 8, ptr %5) #8
  %15 = getelementptr inbounds nuw %struct.b2JointId, ptr %3, i32 0, i32 1
  %16 = load i16, ptr %15, align 4, !tbaa !28
  %17 = zext i16 %16 to i32
  %18 = call ptr @b2GetWorld(i32 noundef %17)
  store ptr %18, ptr %5, align 8, !tbaa !31
  %19 = load ptr, ptr %5, align 8, !tbaa !31
  %20 = getelementptr inbounds nuw %struct.b2World, ptr %19, i32 0, i32 60
  %21 = load i8, ptr %20, align 1, !tbaa !33, !range !22, !noundef !23
  %22 = trunc i8 %21 to i1
  br i1 %22, label %23, label %24

23:                                               ; preds = %1
  store float 0.000000e+00, ptr %2, align 4
  store i32 1, ptr %6, align 4
  br label %65

24:                                               ; preds = %1
  call void @llvm.lifetime.start.p0(i64 16, ptr %7) #8
  %25 = load ptr, ptr %5, align 8, !tbaa !31
  %26 = load ptr, ptr %4, align 8, !tbaa !7
  %27 = getelementptr inbounds nuw %struct.b2JointSim, ptr %26, i32 0, i32 1
  %28 = load i32, ptr %27, align 4, !tbaa !81
  %29 = call { <2 x float>, <2 x float> } @b2GetBodyTransform(ptr noundef %25, i32 noundef %28)
  %30 = getelementptr inbounds nuw { <2 x float>, <2 x float> }, ptr %7, i32 0, i32 0
  %31 = extractvalue { <2 x float>, <2 x float> } %29, 0
  store <2 x float> %31, ptr %30, align 4
  %32 = getelementptr inbounds nuw { <2 x float>, <2 x float> }, ptr %7, i32 0, i32 1
  %33 = extractvalue { <2 x float>, <2 x float> } %29, 1
  store <2 x float> %33, ptr %32, align 4
  call void @llvm.lifetime.start.p0(i64 16, ptr %8) #8
  %34 = load ptr, ptr %5, align 8, !tbaa !31
  %35 = load ptr, ptr %4, align 8, !tbaa !7
  %36 = getelementptr inbounds nuw %struct.b2JointSim, ptr %35, i32 0, i32 2
  %37 = load i32, ptr %36, align 4, !tbaa !83
  %38 = call { <2 x float>, <2 x float> } @b2GetBodyTransform(ptr noundef %34, i32 noundef %37)
  %39 = getelementptr inbounds nuw { <2 x float>, <2 x float> }, ptr %8, i32 0, i32 0
  %40 = extractvalue { <2 x float>, <2 x float> } %38, 0
  store <2 x float> %40, ptr %39, align 4
  %41 = getelementptr inbounds nuw { <2 x float>, <2 x float> }, ptr %8, i32 0, i32 1
  %42 = extractvalue { <2 x float>, <2 x float> } %38, 1
  store <2 x float> %42, ptr %41, align 4
  call void @llvm.lifetime.start.p0(i64 8, ptr %9) #8
  %43 = load ptr, ptr %4, align 8, !tbaa !7
  %44 = getelementptr inbounds nuw %struct.b2JointSim, ptr %43, i32 0, i32 4
  %45 = getelementptr inbounds nuw { <2 x float>, <2 x float> }, ptr %7, i32 0, i32 0
  %46 = load <2 x float>, ptr %45, align 4
  %47 = getelementptr inbounds nuw { <2 x float>, <2 x float> }, ptr %7, i32 0, i32 1
  %48 = load <2 x float>, ptr %47, align 4
  %49 = load <2 x float>, ptr %44, align 4
  %50 = call <2 x float> @b2TransformPoint(<2 x float> %46, <2 x float> %48, <2 x float> %49)
  store <2 x float> %50, ptr %9, align 4
  call void @llvm.lifetime.start.p0(i64 8, ptr %10) #8
  %51 = load ptr, ptr %4, align 8, !tbaa !7
  %52 = getelementptr inbounds nuw %struct.b2JointSim, ptr %51, i32 0, i32 5
  %53 = getelementptr inbounds nuw { <2 x float>, <2 x float> }, ptr %8, i32 0, i32 0
  %54 = load <2 x float>, ptr %53, align 4
  %55 = getelementptr inbounds nuw { <2 x float>, <2 x float> }, ptr %8, i32 0, i32 1
  %56 = load <2 x float>, ptr %55, align 4
  %57 = load <2 x float>, ptr %52, align 4
  %58 = call <2 x float> @b2TransformPoint(<2 x float> %54, <2 x float> %56, <2 x float> %57)
  store <2 x float> %58, ptr %10, align 4
  call void @llvm.lifetime.start.p0(i64 8, ptr %11) #8
  %59 = load <2 x float>, ptr %10, align 4
  %60 = load <2 x float>, ptr %9, align 4
  %61 = call <2 x float> @b2Sub(<2 x float> %59, <2 x float> %60)
  store <2 x float> %61, ptr %11, align 4
  call void @llvm.lifetime.start.p0(i64 4, ptr %12) #8
  %62 = load <2 x float>, ptr %11, align 4
  %63 = call float @b2Length(<2 x float> %62)
  store float %63, ptr %12, align 4, !tbaa !3
  %64 = load float, ptr %12, align 4, !tbaa !3
  store float %64, ptr %2, align 4
  store i32 1, ptr %6, align 4
  call void @llvm.lifetime.end.p0(i64 4, ptr %12) #8
  call void @llvm.lifetime.end.p0(i64 8, ptr %11) #8
  call void @llvm.lifetime.end.p0(i64 8, ptr %10) #8
  call void @llvm.lifetime.end.p0(i64 8, ptr %9) #8
  call void @llvm.lifetime.end.p0(i64 16, ptr %8) #8
  call void @llvm.lifetime.end.p0(i64 16, ptr %7) #8
  br label %65

65:                                               ; preds = %24, %23
  call void @llvm.lifetime.end.p0(i64 8, ptr %5) #8
  call void @llvm.lifetime.end.p0(i64 8, ptr %4) #8
  %66 = load float, ptr %2, align 4
  ret float %66
}