; Function Attrs: nounwind uwtable
define float @b2DistanceJoint_GetCurrentLength(i64 %0) local_unnamed_addr #3 {
  %.sroa.2.0.extract.shift = lshr i64 %0, 32
  %.sroa.2.0.extract.trunc = trunc nuw i64 %.sroa.2.0.extract.shift to i32
  %2 = tail call ptr @b2GetJointSimCheckType(i64 %0, i32 noundef 0) #9
  %3 = and i32 %.sroa.2.0.extract.trunc, 65535
  %4 = tail call ptr @b2GetWorld(i32 noundef %3) #9
  %5 = getelementptr inbounds nuw i8, ptr %4, i64 1783
  %6 = load i8, ptr %5, align 1, !tbaa !22, !range !18, !noundef !19
  %7 = trunc nuw i8 %6 to i1
  br i1 %7, label %46, label %8

8:                                                ; preds = %1
  %9 = getelementptr inbounds nuw i8, ptr %2, i64 4
  %10 = load i32, ptr %9, align 4, !tbaa !72
  %11 = tail call { <2 x float>, <2 x float> } @b2GetBodyTransform(ptr noundef nonnull %4, i32 noundef %10) #9
  %12 = extractvalue { <2 x float>, <2 x float> } %11, 0
  %13 = extractvalue { <2 x float>, <2 x float> } %11, 1
  %14 = getelementptr inbounds nuw i8, ptr %2, i64 8
  %15 = load i32, ptr %14, align 4, !tbaa !74
  %16 = tail call { <2 x float>, <2 x float> } @b2GetBodyTransform(ptr noundef nonnull %4, i32 noundef %15) #9
  %17 = extractvalue { <2 x float>, <2 x float> } %16, 0
  %18 = extractvalue { <2 x float>, <2 x float> } %16, 1
  %19 = getelementptr inbounds nuw i8, ptr %2, i64 16
  %20 = load <2 x float>, ptr %19, align 4
  %.sroa.3.8.vec.extract.i = extractelement <2 x float> %13, i64 0
  %.sroa.0.0.vec.extract.i = extractelement <2 x float> %20, i64 0
  %21 = fmul <2 x float> %13, %20
  %22 = extractelement <2 x float> %21, i64 0
  %.sroa.3.12.vec.extract.i = extractelement <2 x float> %13, i64 1
  %.sroa.0.4.vec.extract.i = extractelement <2 x float> %20, i64 1
  %23 = fmul float %.sroa.3.12.vec.extract.i, %.sroa.0.4.vec.extract.i
  %24 = fsub float %22, %23
  %.sroa.06.0.vec.extract.i = extractelement <2 x float> %12, i64 0
  %25 = fadd float %.sroa.06.0.vec.extract.i, %24
  %26 = fmul float %.sroa.3.12.vec.extract.i, %.sroa.0.0.vec.extract.i
  %27 = fmul float %.sroa.3.8.vec.extract.i, %.sroa.0.4.vec.extract.i
  %28 = fadd float %26, %27
  %.sroa.06.4.vec.extract.i = extractelement <2 x float> %12, i64 1
  %29 = fadd float %.sroa.06.4.vec.extract.i, %28
  %30 = getelementptr inbounds nuw i8, ptr %2, i64 24
  %31 = load <2 x float>, ptr %30, align 4
  %.sroa.3.8.vec.extract.i15 = extractelement <2 x float> %18, i64 0
  %.sroa.0.0.vec.extract.i16 = extractelement <2 x float> %31, i64 0
  %32 = fmul <2 x float> %18, %31
  %33 = extractelement <2 x float> %32, i64 0
  %.sroa.3.12.vec.extract.i17 = extractelement <2 x float> %18, i64 1
  %.sroa.0.4.vec.extract.i18 = extractelement <2 x float> %31, i64 1
  %34 = fmul float %.sroa.3.12.vec.extract.i17, %.sroa.0.4.vec.extract.i18
  %35 = fsub float %33, %34
  %.sroa.06.0.vec.extract.i19 = extractelement <2 x float> %17, i64 0
  %36 = fadd float %.sroa.06.0.vec.extract.i19, %35
  %37 = fmul float %.sroa.3.12.vec.extract.i17, %.sroa.0.0.vec.extract.i16
  %38 = fmul float %.sroa.3.8.vec.extract.i15, %.sroa.0.4.vec.extract.i18
  %39 = fadd float %37, %38
  %.sroa.06.4.vec.extract.i20 = extractelement <2 x float> %17, i64 1
  %40 = fadd float %.sroa.06.4.vec.extract.i20, %39
  %41 = fsub float %36, %25
  %42 = fsub float %40, %29
  %43 = fmul float %41, %41
  %44 = fmul float %42, %42
  %45 = fadd float %43, %44
  %sqrt.i = tail call float @llvm.sqrt.f32(float %45)
  br label %46

46:                                               ; preds = %1, %8
  %.0 = phi float [ %sqrt.i, %8 ], [ 0.000000e+00, %1 ]
  ret float %.0
}